; ModuleID = '37/1919.c'
source_filename = "37/1919.c"
target datalayout = "e-m:e-p270:32:32-p271:32:32-p272:64:64-i64:64-f80:128-n8:16:32:64-S128"
target triple = "x86_64-pc-linux-gnu"

@.str = private unnamed_addr constant [3 x i8] c"%d\00", align 1
@.str.1 = private unnamed_addr constant [3 x i8] c"%s\00", align 1
@.str.2 = private unnamed_addr constant [4 x i8] c"no\0A\00", align 1
@.str.3 = private unnamed_addr constant [4 x i8] c"%c\0A\00", align 1

; Function Attrs: noinline nounwind uwtable
define dso_local i32 @main() #0 {
  %1 = alloca i32, align 4
  %2 = alloca [100000 x i8], align 16
  %3 = alloca i32, align 4
  %4 = alloca i32, align 4
  %5 = alloca i32, align 4
  %6 = alloca i32, align 4
  %7 = alloca i32, align 4
  %8 = alloca i32, align 4
  store i32 0, i32* %1, align 4
  %9 = call i32 (i8*, ...) @__isoc99_scanf(i8* getelementptr inbounds ([3 x i8], [3 x i8]* @.str, i64 0, i64 0), i32* %3)
  store i32 0, i32* %6, align 4
  br label %10

10:                                               ; preds = %71, %0
  %11 = load i32, i32* %6, align 4
  %12 = load i32, i32* %3, align 4
  %13 = icmp slt i32 %11, %12
  br i1 %13, label %14, label %74

14:                                               ; preds = %10
  %15 = getelementptr inbounds [100000 x i8], [100000 x i8]* %2, i64 0, i64 0
  %16 = call i32 (i8*, ...) @__isoc99_scanf(i8* getelementptr inbounds ([3 x i8], [3 x i8]* @.str.1, i64 0, i64 0), i8* %15)
  %17 = getelementptr inbounds [100000 x i8], [100000 x i8]* %2, i64 0, i64 0
  %18 = call i64 @strlen(i8* %17) #3
  %19 = trunc i64 %18 to i32
  store i32 %19, i32* %7, align 4
  store i32 0, i32* %4, align 4
  br label %20

20:                                               ; preds = %55, %14
  %21 = load i32, i32* %4, align 4
  %22 = load i32, i32* %7, align 4
  %23 = icmp slt i32 %21, %22
  br i1 %23, label %24, label %58

24:                                               ; preds = %20
  store i32 0, i32* %8, align 4
  store i32 0, i32* %5, align 4
  br label %25

25:                                               ; preds = %46, %24
  %26 = load i32, i32* %5, align 4
  %27 = load i32, i32* %7, align 4
  %28 = icmp slt i32 %26, %27
  br i1 %28, label %29, label %49

29:                                               ; preds = %25
  %30 = load i32, i32* %4, align 4
  %31 = sext i32 %30 to i64
  %32 = getelementptr inbounds [100000 x i8], [100000 x i8]* %2, i64 0, i64 %31
  %33 = load i8, i8* %32, align 1
  %34 = sext i8 %33 to i32
  %35 = load i32, i32* %5, align 4
  %36 = sext i32 %35 to i64
  %37 = getelementptr inbounds [100000 x i8], [100000 x i8]* %2, i64 0, i64 %36
  %38 = load i8, i8* %37, align 1
  %39 = sext i8 %38 to i32
  %40 = icmp eq i32 %34, %39
  br i1 %40, label %41, label %44

41:                                               ; preds = %29
  %42 = load i32, i32* %8, align 4
  %43 = add nsw i32 %42, 1
  store i32 %43, i32* %8, align 4
  br label %45

44:                                               ; preds = %29
  br label %45

45:                                               ; preds = %44, %41
  br label %46

46:                                               ; preds = %45
  %47 = load i32, i32* %5, align 4
  %48 = add nsw i32 %47, 1
  store i32 %48, i32* %5, align 4
  br label %25

49:                                               ; preds = %25
  %50 = load i32, i32* %8, align 4
  %51 = icmp eq i32 %50, 1
  br i1 %51, label %52, label %53

52:                                               ; preds = %49
  br label %58

53:                                               ; preds = %49
  br label %54

54:                                               ; preds = %53
  br label %55

55:                                               ; preds = %54
  %56 = load i32, i32* %4, align 4
  %57 = add nsw i32 %56, 1
  store i32 %57, i32* %4, align 4
  br label %20

58:                                               ; preds = %52, %20
  %59 = load i32, i32* %8, align 4
  %60 = icmp ne i32 %59, 1
  br i1 %60, label %61, label %63

61:                                               ; preds = %58
  %62 = call i32 (i8*, ...) @printf(i8* getelementptr inbounds ([4 x i8], [4 x i8]* @.str.2, i64 0, i64 0))
  br label %70

63:                                               ; preds = %58
  %64 = load i32, i32* %4, align 4
  %65 = sext i32 %64 to i64
  %66 = getelementptr inbounds [100000 x i8], [100000 x i8]* %2, i64 0, i64 %65
  %67 = load i8, i8* %66, align 1
  %68 = sext i8 %67 to i32
  %69 = call i32 (i8*, ...) @printf(i8* getelementptr inbounds ([4 x i8], [4 x i8]* @.str.3, i64 0, i64 0), i32 %68)
  br label %70

70:                                               ; preds = %63, %61
  br label %71

71:                                               ; preds = %70
  %72 = load i32, i32* %6, align 4
  %73 = add nsw i32 %72, 1
  store i32 %73, i32* %6, align 4
  br label %10

74:                                               ; preds = %10
  %75 = load i32, i32* %1, align 4
  ret i32 %75
}

declare dso_local i32 @__isoc99_scanf(i8*, ...) #1

; Function Attrs: nounwind readonly
declare dso_local i64 @strlen(i8*) #2

declare dso_local i32 @printf(i8*, ...) #1


!llvm.module.flags = !{!0}
!llvm.ident = !{!1}

!0 = !{i32 1, !"wchar_size", i32 4}
!1 = !{!"clang version 10.0.0-4ubuntu1 "}
